; Function Attrs: nounwind uwtable
define hidden i32 @psa_purge_key(i32 noundef %0) local_unnamed_addr #4 {
  %2 = add i32 %0, -2147418112
  %3 = icmp ult i32 %2, -1073676288
  br i1 %3, label %24, label %4

4:                                                ; preds = %1
  %5 = lshr i32 %0, 25
  %6 = and i32 %5, 31
  %7 = zext nneg i32 %6 to i64
  %8 = icmp samesign ugt i32 %6, 21
  br i1 %8, label %psa_unregister_read.exit, label %9

9:                                                ; preds = %4
  %10 = and i32 %0, 33554431
  %11 = shl nuw nsw i32 16, %6
  %.not.i.i = icmp samesign ult i32 %10, %11
  br i1 %.not.i.i, label %12, label %psa_unregister_read.exit

12:                                               ; preds = %9
  %13 = zext nneg i32 %10 to i64
  %14 = getelementptr inbounds nuw [23 x ptr], ptr @global_data, i64 0, i64 %7
  %15 = load ptr, ptr %14, align 8, !tbaa !3
  %16 = getelementptr inbounds nuw %struct.psa_key_slot_t, ptr %15, i64 %13
  %.not30.i = icmp eq ptr %15, null
  br i1 %.not30.i, label %psa_unregister_read.exit, label %17

17:                                               ; preds = %12
  %18 = getelementptr inbounds nuw i8, ptr %16, i64 24
  %19 = load i32, ptr %18, align 8, !tbaa !9
  %20 = icmp eq i32 %19, 2
  br i1 %20, label %21, label %psa_unregister_read.exit

21:                                               ; preds = %17
  %22 = getelementptr inbounds nuw i8, ptr %16, i64 20
  %23 = load i32, ptr %22, align 4, !tbaa !28
  %.not.i = icmp eq i32 %0, %23
  br i1 %.not.i, label %.loopexit.i, label %psa_unregister_read.exit

24:                                               ; preds = %1
  %narrow.i.i = icmp slt i32 %0, 1
  br i1 %narrow.i.i, label %psa_unregister_read.exit, label %.preheader.i

.preheader.i:                                     ; preds = %24
  %25 = load ptr, ptr getelementptr inbounds nuw (i8, ptr @global_data, i64 176), align 8, !tbaa !3
  br label %26

26:                                               ; preds = %34, %.preheader.i
  %.02142.i = phi i64 [ 0, %.preheader.i ], [ %35, %34 ]
  %27 = getelementptr inbounds nuw %struct.psa_key_slot_t, ptr %25, i64 %.02142.i
  %28 = getelementptr inbounds nuw i8, ptr %27, i64 24
  %29 = load i32, ptr %28, align 8, !tbaa !9
  %30 = icmp eq i32 %29, 2
  br i1 %30, label %31, label %34

31:                                               ; preds = %26
  %32 = getelementptr inbounds nuw i8, ptr %27, i64 20
  %33 = load i32, ptr %32, align 4, !tbaa !28
  %.not41.i = icmp eq i32 %0, %33
  br i1 %.not41.i, label %.loopexit.i, label %34

34:                                               ; preds = %31, %26
  %35 = add nuw nsw i64 %.02142.i, 1
  %exitcond.not.i = icmp eq i64 %35, 32
  br i1 %exitcond.not.i, label %psa_unregister_read.exit, label %26, !llvm.loop !29

.loopexit.i:                                      ; preds = %31, %21
  %.0.i = phi ptr [ %16, %21 ], [ %27, %31 ]
  %36 = getelementptr i8, ptr %.0.i, i64 32
  %37 = load i64, ptr %36, align 8, !tbaa !18
  %38 = icmp eq i64 %37, -1
  br i1 %38, label %psa_unregister_read.exit, label %39

39:                                               ; preds = %.loopexit.i
  %40 = add nuw i64 %37, 1
  store i64 %40, ptr %36, align 8, !tbaa !18
  %41 = getelementptr inbounds nuw i8, ptr %.0.i, i64 4
  %42 = load i32, ptr %41, align 4, !tbaa !26
  %43 = and i32 %42, 255
  %44 = icmp ne i32 %43, 0
  %45 = icmp eq i64 %37, 0
  %or.cond = and i1 %44, %45
  br i1 %or.cond, label %46, label %._crit_edge.i

46:                                               ; preds = %39
  %47 = tail call i32 @psa_wipe_key_slot(ptr noundef nonnull %.0.i) #12
  br label %psa_unregister_read.exit

._crit_edge.i:                                    ; preds = %39
  store i64 %37, ptr %36, align 8, !tbaa !18
  br label %psa_unregister_read.exit

psa_unregister_read.exit:                         ; preds = %34, %.loopexit.i, %21, %12, %9, %4, %17, %24, %._crit_edge.i, %46
  %.05 = phi i32 [ %47, %46 ], [ 0, %._crit_edge.i ], [ -151, %.loopexit.i ], [ -140, %21 ], [ -140, %12 ], [ -140, %9 ], [ -140, %4 ], [ -140, %17 ], [ -136, %24 ], [ -140, %34 ]
  ret i32 %.05
}